target datalayout = "e-m:e-p270:32:32-p271:32:32-p272:64:64-i64:64-f80:128-n8:16:32:64-S128"
target triple = "x86_64-pc-linux-gnu"

@.str = private unnamed_addr constant [3 x i8] c"%d\00", align 1
@.str.1 = private unnamed_addr constant [4 x i8] c"%lf\00", align 1
@.str.2 = private unnamed_addr constant [6 x i8] c"%.5f\0A\00", align 1

; Function Attrs: noinline nounwind uwtable
define dso_local double @f(i32 %0, double** %1) #0 {
  %3 = alloca i32, align 4
  %4 = alloca double**, align 8
  %5 = alloca double, align 8
  %6 = alloca double, align 8
  %7 = alloca i32, align 4
  %8 = alloca i32, align 4
  store i32 %0, i32* %3, align 4
  store double** %1, double*** %4, align 8
  store double 0.000000e+00, double* %5, align 8
  store double 0.000000e+00, double* %6, align 8
  store i32 0, i32* %7, align 4
  br label %9

9:                                                ; preds = %22, %2
  %10 = load i32, i32* %7, align 4
  %11 = load i32, i32* %3, align 4
  %12 = icmp slt i32 %10, %11
  br i1 %12, label %13, label %25

13:                                               ; preds = %9
  %14 = load double, double* %5, align 8
  %15 = load double**, double*** %4, align 8
  %16 = load i32, i32* %7, align 4
  %17 = sext i32 %16 to i64
  %18 = getelementptr inbounds double*, double** %15, i64 %17
  %19 = load double*, double** %18, align 8
  %20 = load double, double* %19, align 8
  %21 = fadd double %14, %20
  store double %21, double* %5, align 8
  br label %22

22:                                               ; preds = %13
  %23 = load i32, i32* %7, align 4
  %24 = add nsw i32 %23, 1
  store i32 %24, i32* %7, align 4
  br label %9

25:                                               ; preds = %9
  %26 = load double, double* %5, align 8
  %27 = load i32, i32* %3, align 4
  %28 = sitofp i32 %27 to double
  %29 = fdiv double %26, %28
  store double %29, double* %5, align 8
  store i32 0, i32* %7, align 4
  br label %30

30:                                               ; preds = %65, %25
  %31 = load i32, i32* %7, align 4
  %32 = load i32, i32* %3, align 4
  %33 = icmp slt i32 %31, %32
  br i1 %33, label %34, label %68

34:                                               ; preds = %30
  %35 = load double**, double*** %4, align 8
  %36 = load i32, i32* %7, align 4
  %37 = sext i32 %36 to i64
  %38 = getelementptr inbounds double*, double** %35, i64 %37
  %39 = load double*, double** %38, align 8
  %40 = load double, double* %39, align 8
  %41 = load double, double* %5, align 8
  %42 = fsub double %40, %41
  %43 = load double**, double*** %4, align 8
  %44 = load i32, i32* %7, align 4
  %45 = sext i32 %44 to i64
  %46 = getelementptr inbounds double*, double** %43, i64 %45
  %47 = load double*, double** %46, align 8
  %48 = load double, double* %47, align 8
  %49 = load double, double* %5, align 8
  %50 = fsub double %48, %49
  %51 = fmul double %42, %50
  %52 = load double**, double*** %4, align 8
  %53 = load i32, i32* %7, align 4
  %54 = sext i32 %53 to i64
  %55 = getelementptr inbounds double*, double** %52, i64 %54
  %56 = load double*, double** %55, align 8
  store double %51, double* %56, align 8
  %57 = load double, double* %6, align 8
  %58 = load double**, double*** %4, align 8
  %59 = load i32, i32* %7, align 4
  %60 = sext i32 %59 to i64
  %61 = getelementptr inbounds double*, double** %58, i64 %60
  %62 = load double*, double** %61, align 8
  %63 = load double, double* %62, align 8
  %64 = fadd double %57, %63
  store double %64, double* %6, align 8
  br label %65

65:                                               ; preds = %34
  %66 = load i32, i32* %7, align 4
  %67 = add nsw i32 %66, 1
  store i32 %67, i32* %7, align 4
  br label %30

68:                                               ; preds = %30
  %69 = load double, double* %6, align 8
  %70 = load i32, i32* %3, align 4
  %71 = sitofp i32 %70 to double
  %72 = fdiv double %69, %71
  %73 = call double @sqrt(double %72) #3
  store double %73, double* %6, align 8
  %74 = load double, double* %6, align 8
  ret double %74
}

; Function Attrs: noinline nounwind uwtable
define dso_local void @main() #0 {
  %1 = alloca i32, align 4
  %2 = alloca i32, align 4
  %3 = alloca i32, align 4
  %4 = alloca i32, align 4
  %5 = alloca double*, align 8
  %6 = alloca [100 x double*], align 16
  %7 = call i32 (i8*, ...) @__isoc99_scanf(i8* getelementptr inbounds ([3 x i8], [3 x i8]* @.str, i64 0, i64 0), i32* %1)
  store i32 1, i32* %3, align 4
  br label %8

8:                                                ; preds = %57, %0
  %9 = load i32, i32* %3, align 4
  %10 = load i32, i32* %1, align 4
  %11 = icmp sle i32 %9, %10
  br i1 %11, label %12, label %60

12:                                               ; preds = %8
  %13 = call i32 (i8*, ...) @__isoc99_scanf(i8* getelementptr inbounds ([3 x i8], [3 x i8]* @.str, i64 0, i64 0), i32* %2)
  %14 = load i32, i32* %2, align 4
  %15 = sext i32 %14 to i64
  %16 = mul i64 %15, 8
  %17 = call noalias i8* @malloc(i64 %16) #3
  %18 = bitcast i8* %17 to double*
  store double* %18, double** %5, align 8
  store i32 0, i32* %4, align 4
  br label %19

19:                                               ; preds = %32, %12
  %20 = load i32, i32* %4, align 4
  %21 = load i32, i32* %2, align 4
  %22 = icmp slt i32 %20, %21
  br i1 %22, label %23, label %35

23:                                               ; preds = %19
  %24 = load double*, double** %5, align 8
  %25 = load i32, i32* %4, align 4
  %26 = sext i32 %25 to i64
  %27 = getelementptr inbounds double, double* %24, i64 %26
  %28 = getelementptr inbounds [100 x double*], [100 x double*]* %6, i64 0, i64 0
  %29 = load i32, i32* %4, align 4
  %30 = sext i32 %29 to i64
  %31 = getelementptr inbounds double*, double** %28, i64 %30
  store double* %27, double** %31, align 8
  br label %32

32:                                               ; preds = %23
  %33 = load i32, i32* %4, align 4
  %34 = add nsw i32 %33, 1
  store i32 %34, i32* %4, align 4
  br label %19

35:                                               ; preds = %19
  store i32 0, i32* %4, align 4
  br label %36

36:                                               ; preds = %47, %35
  %37 = load i32, i32* %4, align 4
  %38 = load i32, i32* %2, align 4
  %39 = icmp slt i32 %37, %38
  br i1 %39, label %40, label %50

40:                                               ; preds = %36
  %41 = getelementptr inbounds [100 x double*], [100 x double*]* %6, i64 0, i64 0
  %42 = load i32, i32* %4, align 4
  %43 = sext i32 %42 to i64
  %44 = getelementptr inbounds double*, double** %41, i64 %43
  %45 = load double*, double** %44, align 8
  %46 = call i32 (i8*, ...) @__isoc99_scanf(i8* getelementptr inbounds ([4 x i8], [4 x i8]* @.str.1, i64 0, i64 0), double* %45)
  br label %47

47:                                               ; preds = %40
  %48 = load i32, i32* %4, align 4
  %49 = add nsw i32 %48, 1
  store i32 %49, i32* %4, align 4
  br label %36

50:                                               ; preds = %36
  %51 = load i32, i32* %2, align 4
  %52 = getelementptr inbounds [100 x double*], [100 x double*]* %6, i64 0, i64 0
  %53 = call double @f(i32 %51, double** %52)
  %54 = call i32 (i8*, ...) @printf(i8* getelementptr inbounds ([6 x i8], [6 x i8]* @.str.2, i64 0, i64 0), double %53)
  %55 = load double*, double** %5, align 8
  %56 = bitcast double* %55 to i8*
  call void @free(i8* %56) #3
  br label %57

57:                                               ; preds = %50
  %58 = load i32, i32* %3, align 4
  %59 = add nsw i32 %58, 1
  store i32 %59, i32* %3, align 4
  br label %8

60:                                               ; preds = %8
  ret void
}